ARM GAS  /tmp/ccgD3NTS.s 			page 1


   1              		.cpu cortex-m0
   2              		.eabi_attribute 20, 1
   3              		.eabi_attribute 21, 1
   4              		.eabi_attribute 23, 3
   5              		.eabi_attribute 24, 1
   6              		.eabi_attribute 25, 1
   7              		.eabi_attribute 26, 1
   8              		.eabi_attribute 30, 1
   9              		.eabi_attribute 34, 0
  10              		.eabi_attribute 18, 4
  11              		.file	"at24cxx.c"
  12              		.text
  13              	.Ltext0:
  14              		.cfi_sections	.debug_frame
  15              		.section	.text.at24c02_adc_write,"ax",%progbits
  16              		.align	1
  17              		.global	at24c02_adc_write
  18              		.syntax unified
  19              		.code	16
  20              		.thumb_func
  21              		.fpu softvfp
  23              	at24c02_adc_write:
  24              	.LFB37:
  25              		.file 1 "Dsp/at24cxx.c"
   1:Dsp/at24cxx.c **** #include <stdio.h>
   2:Dsp/at24cxx.c **** #include <stdlib.h>
   3:Dsp/at24cxx.c **** #include "stm32f0xx_hal.h"
   4:Dsp/at24cxx.c **** #include "iic.h"
   5:Dsp/at24cxx.c **** 
   6:Dsp/at24cxx.c **** extern uint8_t flag;
   7:Dsp/at24cxx.c **** extern uint16_t I2c_last;
   8:Dsp/at24cxx.c **** extern uint16_t I2c_Write;
   9:Dsp/at24cxx.c **** uint8_t flag_ec11 = 0; 
  10:Dsp/at24cxx.c **** uint8_t I2c_Read[5];
  11:Dsp/at24cxx.c **** uint8_t last = 1;
  12:Dsp/at24cxx.c **** 
  13:Dsp/at24cxx.c **** void at24c02_adc_write(void)
  14:Dsp/at24cxx.c **** {
  26              		.loc 1 14 0
  27              		.cfi_startproc
  28              		@ args = 0, pretend = 0, frame = 8
  29              		@ frame_needed = 0, uses_anonymous_args = 0
  30 0000 00B5     		push	{lr}
  31              	.LCFI0:
  32              		.cfi_def_cfa_offset 4
  33              		.cfi_offset 14, -4
  34 0002 83B0     		sub	sp, sp, #12
  35              	.LCFI1:
  36              		.cfi_def_cfa_offset 16
  15:Dsp/at24cxx.c **** 	char str[5];
  16:Dsp/at24cxx.c **** 
  17:Dsp/at24cxx.c **** 	if (flag_ec11 == 1)
  37              		.loc 1 17 0
  38 0004 0A4B     		ldr	r3, .L4
  39 0006 1B78     		ldrb	r3, [r3]
  40 0008 012B     		cmp	r3, #1
  41 000a 01D0     		beq	.L3
ARM GAS  /tmp/ccgD3NTS.s 			page 2


  42              	.L1:
  18:Dsp/at24cxx.c **** 	{
  19:Dsp/at24cxx.c **** 		itoa(I2c_Write, str, 10);
  20:Dsp/at24cxx.c **** 		AT24CXX_Write(0, (uint8_t*)str, 5);
  21:Dsp/at24cxx.c **** 		flag_ec11 = 0;
  22:Dsp/at24cxx.c **** 	}
  23:Dsp/at24cxx.c **** 	else
  24:Dsp/at24cxx.c **** 	{
  25:Dsp/at24cxx.c **** 	}
  26:Dsp/at24cxx.c **** }
  43              		.loc 1 26 0
  44 000c 03B0     		add	sp, sp, #12
  45              		@ sp needed
  46 000e 00BD     		pop	{pc}
  47              	.L3:
  19:Dsp/at24cxx.c **** 		AT24CXX_Write(0, (uint8_t*)str, 5);
  48              		.loc 1 19 0
  49 0010 084B     		ldr	r3, .L4+4
  50 0012 1888     		ldrh	r0, [r3]
  51 0014 0A22     		movs	r2, #10
  52 0016 6946     		mov	r1, sp
  53 0018 FFF7FEFF 		bl	itoa
  54              	.LVL0:
  20:Dsp/at24cxx.c **** 		flag_ec11 = 0;
  55              		.loc 1 20 0
  56 001c 0522     		movs	r2, #5
  57 001e 6946     		mov	r1, sp
  58 0020 0020     		movs	r0, #0
  59 0022 FFF7FEFF 		bl	AT24CXX_Write
  60              	.LVL1:
  21:Dsp/at24cxx.c **** 	}
  61              		.loc 1 21 0
  62 0026 024B     		ldr	r3, .L4
  63 0028 0022     		movs	r2, #0
  64 002a 1A70     		strb	r2, [r3]
  65              		.loc 1 26 0
  66 002c EEE7     		b	.L1
  67              	.L5:
  68 002e C046     		.align	2
  69              	.L4:
  70 0030 00000000 		.word	.LANCHOR0
  71 0034 00000000 		.word	I2c_Write
  72              		.cfi_endproc
  73              	.LFE37:
  75              		.section	.text.at24c02_adc_read,"ax",%progbits
  76              		.align	1
  77              		.global	at24c02_adc_read
  78              		.syntax unified
  79              		.code	16
  80              		.thumb_func
  81              		.fpu softvfp
  83              	at24c02_adc_read:
  84              	.LFB38:
  27:Dsp/at24cxx.c **** 
  28:Dsp/at24cxx.c **** void at24c02_adc_read(void)
  29:Dsp/at24cxx.c **** {
  85              		.loc 1 29 0
ARM GAS  /tmp/ccgD3NTS.s 			page 3


  86              		.cfi_startproc
  87              		@ args = 0, pretend = 0, frame = 0
  88              		@ frame_needed = 0, uses_anonymous_args = 0
  89 0000 10B5     		push	{r4, lr}
  90              	.LCFI2:
  91              		.cfi_def_cfa_offset 8
  92              		.cfi_offset 4, -8
  93              		.cfi_offset 14, -4
  30:Dsp/at24cxx.c **** 	static uint8_t last = 1;
  31:Dsp/at24cxx.c **** 
  32:Dsp/at24cxx.c **** 	if (flag == 1)
  94              		.loc 1 32 0
  95 0002 0E4B     		ldr	r3, .L9
  96 0004 1B78     		ldrb	r3, [r3]
  97 0006 012B     		cmp	r3, #1
  98 0008 04D0     		beq	.L8
  99              	.L7:
  33:Dsp/at24cxx.c **** 	{
  34:Dsp/at24cxx.c **** 		if (last)
  35:Dsp/at24cxx.c **** 		{
  36:Dsp/at24cxx.c **** 			AT24CXX_Read(0, I2c_Read, 5);
  37:Dsp/at24cxx.c **** 			I2c_last = atoi((char*)I2c_Read);
  38:Dsp/at24cxx.c **** 			last = 0;
  39:Dsp/at24cxx.c **** 		}
  40:Dsp/at24cxx.c **** 	}
  41:Dsp/at24cxx.c **** 	else
  42:Dsp/at24cxx.c **** 	{
  43:Dsp/at24cxx.c **** 	}
  44:Dsp/at24cxx.c **** 
  45:Dsp/at24cxx.c **** 	GPIOA->BRR = 1 << 0;   //beep
 100              		.loc 1 45 0
 101 000a 9023     		movs	r3, #144
 102 000c DB05     		lsls	r3, r3, #23
 103 000e 0122     		movs	r2, #1
 104 0010 9A62     		str	r2, [r3, #40]
  46:Dsp/at24cxx.c **** }
 105              		.loc 1 46 0
 106              		@ sp needed
 107 0012 10BD     		pop	{r4, pc}
 108              	.L8:
  34:Dsp/at24cxx.c **** 		{
 109              		.loc 1 34 0
 110 0014 0A4B     		ldr	r3, .L9+4
 111 0016 1B78     		ldrb	r3, [r3]
 112 0018 002B     		cmp	r3, #0
 113 001a F6D0     		beq	.L7
  36:Dsp/at24cxx.c **** 			I2c_last = atoi((char*)I2c_Read);
 114              		.loc 1 36 0
 115 001c 094C     		ldr	r4, .L9+8
 116 001e 0522     		movs	r2, #5
 117 0020 2100     		movs	r1, r4
 118 0022 0020     		movs	r0, #0
 119 0024 FFF7FEFF 		bl	AT24CXX_Read
 120              	.LVL2:
  37:Dsp/at24cxx.c **** 			last = 0;
 121              		.loc 1 37 0
 122 0028 2000     		movs	r0, r4
ARM GAS  /tmp/ccgD3NTS.s 			page 4


 123 002a FFF7FEFF 		bl	atoi
 124              	.LVL3:
 125 002e 064B     		ldr	r3, .L9+12
 126 0030 1880     		strh	r0, [r3]
  38:Dsp/at24cxx.c **** 		}
 127              		.loc 1 38 0
 128 0032 034B     		ldr	r3, .L9+4
 129 0034 0022     		movs	r2, #0
 130 0036 1A70     		strb	r2, [r3]
 131 0038 E7E7     		b	.L7
 132              	.L10:
 133 003a C046     		.align	2
 134              	.L9:
 135 003c 00000000 		.word	flag
 136 0040 00000000 		.word	.LANCHOR1
 137 0044 00000000 		.word	I2c_Read
 138 0048 00000000 		.word	I2c_last
 139              		.cfi_endproc
 140              	.LFE38:
 142              		.global	last
 143              		.comm	I2c_Read,5,4
 144              		.global	flag_ec11
 145              		.section	.bss.flag_ec11,"aw",%nobits
 146              		.set	.LANCHOR0,. + 0
 149              	flag_ec11:
 150 0000 00       		.space	1
 151              		.section	.data.last,"aw",%progbits
 154              	last:
 155 0000 01       		.byte	1
 156              		.section	.data.last.7415,"aw",%progbits
 157              		.set	.LANCHOR1,. + 0
 160              	last.7415:
 161 0000 01       		.byte	1
 162              		.text
 163              	.Letext0:
 164              		.file 2 "/home/xiao/Tool/gcc-arm-none-eabi-7-2017-q4-major/arm-none-eabi/include/machine/_default_
 165              		.file 3 "/home/xiao/Tool/gcc-arm-none-eabi-7-2017-q4-major/arm-none-eabi/include/sys/lock.h"
 166              		.file 4 "/home/xiao/Tool/gcc-arm-none-eabi-7-2017-q4-major/arm-none-eabi/include/sys/_types.h"
 167              		.file 5 "/home/xiao/Tool/gcc-arm-none-eabi-7-2017-q4-major/lib/gcc/arm-none-eabi/7.2.1/include/std
 168              		.file 6 "/home/xiao/Tool/gcc-arm-none-eabi-7-2017-q4-major/arm-none-eabi/include/sys/reent.h"
 169              		.file 7 "/home/xiao/Tool/gcc-arm-none-eabi-7-2017-q4-major/arm-none-eabi/include/sys/_stdint.h"
 170              		.file 8 "/home/xiao/Tool/gcc-arm-none-eabi-7-2017-q4-major/arm-none-eabi/include/stdlib.h"
 171              		.file 9 "Drivers/CMSIS/Device/ST/STM32F0xx/Include/system_stm32f0xx.h"
 172              		.file 10 "Drivers/CMSIS/Device/ST/STM32F0xx/Include/stm32f030x6.h"
 173              		.file 11 "Dsp/Inc/iic.h"
ARM GAS  /tmp/ccgD3NTS.s 			page 5


DEFINED SYMBOLS
                            *ABS*:0000000000000000 at24cxx.c
     /tmp/ccgD3NTS.s:16     .text.at24c02_adc_write:0000000000000000 $t
     /tmp/ccgD3NTS.s:23     .text.at24c02_adc_write:0000000000000000 at24c02_adc_write
     /tmp/ccgD3NTS.s:70     .text.at24c02_adc_write:0000000000000030 $d
     /tmp/ccgD3NTS.s:76     .text.at24c02_adc_read:0000000000000000 $t
     /tmp/ccgD3NTS.s:83     .text.at24c02_adc_read:0000000000000000 at24c02_adc_read
     /tmp/ccgD3NTS.s:135    .text.at24c02_adc_read:000000000000003c $d
                            *COM*:0000000000000005 I2c_Read
     /tmp/ccgD3NTS.s:154    .data.last:0000000000000000 last
     /tmp/ccgD3NTS.s:149    .bss.flag_ec11:0000000000000000 flag_ec11
     /tmp/ccgD3NTS.s:150    .bss.flag_ec11:0000000000000000 $d
     /tmp/ccgD3NTS.s:160    .data.last.7415:0000000000000000 last.7415

UNDEFINED SYMBOLS
itoa
AT24CXX_Write
I2c_Write
AT24CXX_Read
atoi
flag
I2c_last
