ARM GAS  /tmp/ccbKX7Q4.s 			page 1


   1              		.cpu cortex-m0
   2              		.eabi_attribute 20, 1
   3              		.eabi_attribute 21, 1
   4              		.eabi_attribute 23, 3
   5              		.eabi_attribute 24, 1
   6              		.eabi_attribute 25, 1
   7              		.eabi_attribute 26, 1
   8              		.eabi_attribute 30, 1
   9              		.eabi_attribute 34, 0
  10              		.eabi_attribute 18, 4
  11              		.file	"ec11.c"
  12              		.text
  13              	.Ltext0:
  14              		.cfi_sections	.debug_frame
  15              		.section	.text.ec11_irq_handler,"ax",%progbits
  16              		.align	1
  17              		.global	ec11_irq_handler
  18              		.syntax unified
  19              		.code	16
  20              		.thumb_func
  21              		.fpu softvfp
  23              	ec11_irq_handler:
  24              	.LFB37:
  25              		.file 1 "Dsp/ec11.c"
   1:Dsp/ec11.c    **** #include "stm32f0xx_hal.h"
   2:Dsp/ec11.c    **** 
   3:Dsp/ec11.c    **** #define S0 0x00
   4:Dsp/ec11.c    **** #define S1 0x01
   5:Dsp/ec11.c    **** #define S2 0x02
   6:Dsp/ec11.c    **** #define S3 0x03
   7:Dsp/ec11.c    **** #define S4 0x04
   8:Dsp/ec11.c    **** #define S5 0x05
   9:Dsp/ec11.c    **** 
  10:Dsp/ec11.c    **** 
  11:Dsp/ec11.c    **** extern uint16_t add;
  12:Dsp/ec11.c    **** extern uint16_t add_t;
  13:Dsp/ec11.c    **** //extern uint16_t add_h;
  14:Dsp/ec11.c    **** //extern uint8_t t_pid;
  15:Dsp/ec11.c    **** extern uint8_t flag_ec11;
  16:Dsp/ec11.c    **** static uint8_t t = 1;
  17:Dsp/ec11.c    **** 
  18:Dsp/ec11.c    **** 
  19:Dsp/ec11.c    **** void ec11_irq_handler(void)
  20:Dsp/ec11.c    **** {
  26              		.loc 1 20 0
  27              		.cfi_startproc
  28              		@ args = 0, pretend = 0, frame = 0
  29              		@ frame_needed = 0, uses_anonymous_args = 0
  30              		@ link register save eliminated.
  21:Dsp/ec11.c    **** 	if (EXTI->PR & (0x000000001 << 9))
  31              		.loc 1 21 0
  32 0000 154B     		ldr	r3, .L7
  33 0002 5B69     		ldr	r3, [r3, #20]
  34 0004 9B05     		lsls	r3, r3, #22
  35 0006 1AD5     		bpl	.L2
  22:Dsp/ec11.c    **** 	{
  23:Dsp/ec11.c    **** 		if (GPIOA->IDR&GPIO_PIN_10)
ARM GAS  /tmp/ccbKX7Q4.s 			page 2


  36              		.loc 1 23 0
  37 0008 9023     		movs	r3, #144
  38 000a DB05     		lsls	r3, r3, #23
  39 000c 1B69     		ldr	r3, [r3, #16]
  40 000e 5B05     		lsls	r3, r3, #21
  41 0010 0DD5     		bpl	.L3
  24:Dsp/ec11.c    **** 		{
  25:Dsp/ec11.c    **** 
  26:Dsp/ec11.c    **** 			if (t == 0)
  42              		.loc 1 26 0
  43 0012 124B     		ldr	r3, .L7+4
  44 0014 1B78     		ldrb	r3, [r3]
  45 0016 002B     		cmp	r3, #0
  46 0018 04D1     		bne	.L4
  27:Dsp/ec11.c    **** 			{
  28:Dsp/ec11.c    **** 				add_t += 10;
  47              		.loc 1 28 0
  48 001a 114A     		ldr	r2, .L7+8
  49 001c 1388     		ldrh	r3, [r2]
  50 001e 0A33     		adds	r3, r3, #10
  51 0020 1380     		strh	r3, [r2]
  52 0022 0CE0     		b	.L2
  53              	.L4:
  29:Dsp/ec11.c    **** 			}
  30:Dsp/ec11.c    **** /*
  31:Dsp/ec11.c    **** 			else if (t == 2)
  32:Dsp/ec11.c    **** 			{
  33:Dsp/ec11.c    **** 				add_h += 100;
  34:Dsp/ec11.c    **** 			}
  35:Dsp/ec11.c    **** */
  36:Dsp/ec11.c    **** 			else
  37:Dsp/ec11.c    **** 			{
  38:Dsp/ec11.c    **** 			    add++;
  54              		.loc 1 38 0
  55 0024 0F4A     		ldr	r2, .L7+12
  56 0026 1388     		ldrh	r3, [r2]
  57 0028 0133     		adds	r3, r3, #1
  58 002a 1380     		strh	r3, [r2]
  59 002c 07E0     		b	.L2
  60              	.L3:
  39:Dsp/ec11.c    **** 			}
  40:Dsp/ec11.c    **** 		}
  41:Dsp/ec11.c    **** 		else
  42:Dsp/ec11.c    **** 		{
  43:Dsp/ec11.c    **** 
  44:Dsp/ec11.c    **** 			if (t == 0)
  61              		.loc 1 44 0
  62 002e 0B4B     		ldr	r3, .L7+4
  63 0030 1B78     		ldrb	r3, [r3]
  64 0032 002B     		cmp	r3, #0
  65 0034 0AD0     		beq	.L6
  45:Dsp/ec11.c    **** 			{
  46:Dsp/ec11.c    **** 				add_t -= 10;
  47:Dsp/ec11.c    **** 			}
  48:Dsp/ec11.c    **** 			else
  49:Dsp/ec11.c    **** 			{
  50:Dsp/ec11.c    **** 				add--;
ARM GAS  /tmp/ccbKX7Q4.s 			page 3


  66              		.loc 1 50 0
  67 0036 0B4A     		ldr	r2, .L7+12
  68 0038 1388     		ldrh	r3, [r2]
  69 003a 013B     		subs	r3, r3, #1
  70 003c 1380     		strh	r3, [r2]
  71              	.L2:
  51:Dsp/ec11.c    **** 			}
  52:Dsp/ec11.c    **** 		}
  53:Dsp/ec11.c    **** 
  54:Dsp/ec11.c    **** 	}
  55:Dsp/ec11.c    **** 	EXTI->PR |= (0x00000001 << 9);
  72              		.loc 1 55 0
  73 003e 064A     		ldr	r2, .L7
  74 0040 5169     		ldr	r1, [r2, #20]
  75 0042 8023     		movs	r3, #128
  76 0044 9B00     		lsls	r3, r3, #2
  77 0046 0B43     		orrs	r3, r1
  78 0048 5361     		str	r3, [r2, #20]
  56:Dsp/ec11.c    **** 
  57:Dsp/ec11.c    **** }
  79              		.loc 1 57 0
  80              		@ sp needed
  81 004a 7047     		bx	lr
  82              	.L6:
  46:Dsp/ec11.c    **** 			}
  83              		.loc 1 46 0
  84 004c 044A     		ldr	r2, .L7+8
  85 004e 1388     		ldrh	r3, [r2]
  86 0050 0A3B     		subs	r3, r3, #10
  87 0052 1380     		strh	r3, [r2]
  88 0054 F3E7     		b	.L2
  89              	.L8:
  90 0056 C046     		.align	2
  91              	.L7:
  92 0058 00040140 		.word	1073808384
  93 005c 00000000 		.word	.LANCHOR0
  94 0060 00000000 		.word	add_t
  95 0064 00000000 		.word	add
  96              		.cfi_endproc
  97              	.LFE37:
  99              		.section	.text.EXTI4_15_IRQHandler,"ax",%progbits
 100              		.align	1
 101              		.global	EXTI4_15_IRQHandler
 102              		.syntax unified
 103              		.code	16
 104              		.thumb_func
 105              		.fpu softvfp
 107              	EXTI4_15_IRQHandler:
 108              	.LFB38:
  58:Dsp/ec11.c    **** 
  59:Dsp/ec11.c    **** 
  60:Dsp/ec11.c    **** void EXTI4_15_IRQHandler(void)
  61:Dsp/ec11.c    **** {
 109              		.loc 1 61 0
 110              		.cfi_startproc
 111              		@ args = 0, pretend = 0, frame = 0
 112              		@ frame_needed = 0, uses_anonymous_args = 0
ARM GAS  /tmp/ccbKX7Q4.s 			page 4


 113 0000 10B5     		push	{r4, lr}
 114              	.LCFI0:
 115              		.cfi_def_cfa_offset 8
 116              		.cfi_offset 4, -8
 117              		.cfi_offset 14, -4
  62:Dsp/ec11.c    **** 	ec11_irq_handler();	
 118              		.loc 1 62 0
 119 0002 FFF7FEFF 		bl	ec11_irq_handler
 120              	.LVL0:
  63:Dsp/ec11.c    **** }
 121              		.loc 1 63 0
 122              		@ sp needed
 123 0006 10BD     		pop	{r4, pc}
 124              		.cfi_endproc
 125              	.LFE38:
 127              		.section	.text.key_scanning,"ax",%progbits
 128              		.align	1
 129              		.global	key_scanning
 130              		.syntax unified
 131              		.code	16
 132              		.thumb_func
 133              		.fpu softvfp
 135              	key_scanning:
 136              	.LFB39:
  64:Dsp/ec11.c    **** 
  65:Dsp/ec11.c    **** 
  66:Dsp/ec11.c    **** void key_scanning(void)
  67:Dsp/ec11.c    **** {
 137              		.loc 1 67 0
 138              		.cfi_startproc
 139              		@ args = 0, pretend = 0, frame = 0
 140              		@ frame_needed = 0, uses_anonymous_args = 0
 141 0000 10B5     		push	{r4, lr}
 142              	.LCFI1:
 143              		.cfi_def_cfa_offset 8
 144              		.cfi_offset 4, -8
 145              		.cfi_offset 14, -4
  68:Dsp/ec11.c    **** 	static uint8_t k_data = S0;
  69:Dsp/ec11.c    **** 	static uint8_t press = 0;
  70:Dsp/ec11.c    **** 	static uint8_t press_l = 0;
  71:Dsp/ec11.c    **** 	
  72:Dsp/ec11.c    **** 	switch (k_data)
 146              		.loc 1 72 0
 147 0002 454B     		ldr	r3, .L30
 148 0004 1A78     		ldrb	r2, [r3]
 149 0006 052A     		cmp	r2, #5
 150 0008 6FD8     		bhi	.L11
 151 000a 9300     		lsls	r3, r2, #2
 152 000c 434A     		ldr	r2, .L30+4
 153 000e D358     		ldr	r3, [r2, r3]
 154 0010 9F46     		mov	pc, r3
 155              		.section	.rodata.key_scanning,"a",%progbits
 156              		.align	2
 157              	.L13:
 158 0000 12000000 		.word	.L12
 159 0004 2C000000 		.word	.L14
 160 0008 46000000 		.word	.L15
ARM GAS  /tmp/ccbKX7Q4.s 			page 5


 161 000c 7E000000 		.word	.L16
 162 0010 98000000 		.word	.L17
 163 0014 E0000000 		.word	.L18
 164              		.section	.text.key_scanning
 165              	.L12:
  73:Dsp/ec11.c    **** 	{
  74:Dsp/ec11.c    **** 		case S0:
  75:Dsp/ec11.c    **** 			if (GPIOA->IDR & GPIO_PIN_8)
 166              		.loc 1 75 0
 167 0012 9023     		movs	r3, #144
 168 0014 DB05     		lsls	r3, r3, #23
 169 0016 1B69     		ldr	r3, [r3, #16]
 170 0018 DB05     		lsls	r3, r3, #23
 171 001a 03D5     		bpl	.L19
  76:Dsp/ec11.c    **** 			{
  77:Dsp/ec11.c    **** 				k_data = S0;
 172              		.loc 1 77 0
 173 001c 3E4B     		ldr	r3, .L30
 174 001e 0022     		movs	r2, #0
 175 0020 1A70     		strb	r2, [r3]
 176 0022 69E0     		b	.L10
 177              	.L19:
  78:Dsp/ec11.c    **** 			}
  79:Dsp/ec11.c    **** 			else
  80:Dsp/ec11.c    **** 			{
  81:Dsp/ec11.c    **** 				k_data = S1;
 178              		.loc 1 81 0
 179 0024 3C4B     		ldr	r3, .L30
 180 0026 0122     		movs	r2, #1
 181 0028 1A70     		strb	r2, [r3]
 182 002a 65E0     		b	.L10
 183              	.L14:
  82:Dsp/ec11.c    **** 			}
  83:Dsp/ec11.c    **** 			break;
  84:Dsp/ec11.c    **** 		case S1:
  85:Dsp/ec11.c    **** 			if (GPIOA->IDR & GPIO_PIN_8)
 184              		.loc 1 85 0
 185 002c 9023     		movs	r3, #144
 186 002e DB05     		lsls	r3, r3, #23
 187 0030 1B69     		ldr	r3, [r3, #16]
 188 0032 DB05     		lsls	r3, r3, #23
 189 0034 03D5     		bpl	.L21
  86:Dsp/ec11.c    **** 			{
  87:Dsp/ec11.c    **** 				k_data = S0;
 190              		.loc 1 87 0
 191 0036 384B     		ldr	r3, .L30
 192 0038 0022     		movs	r2, #0
 193 003a 1A70     		strb	r2, [r3]
 194 003c 5CE0     		b	.L10
 195              	.L21:
  88:Dsp/ec11.c    **** 			}
  89:Dsp/ec11.c    **** 			else 
  90:Dsp/ec11.c    **** 			{
  91:Dsp/ec11.c    **** 				k_data = S2;
 196              		.loc 1 91 0
 197 003e 364B     		ldr	r3, .L30
 198 0040 0222     		movs	r2, #2
ARM GAS  /tmp/ccbKX7Q4.s 			page 6


 199 0042 1A70     		strb	r2, [r3]
 200 0044 58E0     		b	.L10
 201              	.L15:
  92:Dsp/ec11.c    **** 			}
  93:Dsp/ec11.c    **** 			break;
  94:Dsp/ec11.c    **** 		case S2:
  95:Dsp/ec11.c    **** 			if (GPIOA->IDR & GPIO_PIN_8)
 202              		.loc 1 95 0
 203 0046 9023     		movs	r3, #144
 204 0048 DB05     		lsls	r3, r3, #23
 205 004a 1B69     		ldr	r3, [r3, #16]
 206 004c DB05     		lsls	r3, r3, #23
 207 004e 12D4     		bmi	.L27
  96:Dsp/ec11.c    **** 			{
  97:Dsp/ec11.c    **** 				k_data = S3;
  98:Dsp/ec11.c    **** 			}
  99:Dsp/ec11.c    **** 			else
 100:Dsp/ec11.c    **** 			{
 101:Dsp/ec11.c    **** 				press++;
 208              		.loc 1 101 0
 209 0050 334A     		ldr	r2, .L30+8
 210 0052 1378     		ldrb	r3, [r2]
 211 0054 0133     		adds	r3, r3, #1
 212 0056 DBB2     		uxtb	r3, r3
 213 0058 1370     		strb	r3, [r2]
 102:Dsp/ec11.c    **** 				t = 1;
 214              		.loc 1 102 0
 215 005a 324A     		ldr	r2, .L30+12
 216 005c 0121     		movs	r1, #1
 217 005e 1170     		strb	r1, [r2]
 103:Dsp/ec11.c    **** 				//t_pid = 1;
 104:Dsp/ec11.c    **** 				if (20 < press)
 218              		.loc 1 104 0
 219 0060 142B     		cmp	r3, #20
 220 0062 02D9     		bls	.L23
 105:Dsp/ec11.c    **** 				{
 106:Dsp/ec11.c    **** 					k_data = S4;
 221              		.loc 1 106 0
 222 0064 2C4B     		ldr	r3, .L30
 223 0066 0422     		movs	r2, #4
 224 0068 1A70     		strb	r2, [r3]
 225              	.L23:
 107:Dsp/ec11.c    **** 				}
 108:Dsp/ec11.c    **** 				GPIOA->BSRR = 1 << 11;
 226              		.loc 1 108 0
 227 006a 9023     		movs	r3, #144
 228 006c DB05     		lsls	r3, r3, #23
 229 006e 8022     		movs	r2, #128
 230 0070 1201     		lsls	r2, r2, #4
 231 0072 9A61     		str	r2, [r3, #24]
 232 0074 40E0     		b	.L10
 233              	.L27:
  97:Dsp/ec11.c    **** 			}
 234              		.loc 1 97 0
 235 0076 284B     		ldr	r3, .L30
 236 0078 0322     		movs	r2, #3
 237 007a 1A70     		strb	r2, [r3]
ARM GAS  /tmp/ccbKX7Q4.s 			page 7


 238 007c 3CE0     		b	.L10
 239              	.L16:
 109:Dsp/ec11.c    **** 			}
 110:Dsp/ec11.c    **** 			break;
 111:Dsp/ec11.c    **** 		case S3:
 112:Dsp/ec11.c    **** 			if (GPIOA->IDR & GPIO_PIN_8)
 240              		.loc 1 112 0
 241 007e 9023     		movs	r3, #144
 242 0080 DB05     		lsls	r3, r3, #23
 243 0082 1B69     		ldr	r3, [r3, #16]
 244 0084 DB05     		lsls	r3, r3, #23
 245 0086 03D5     		bpl	.L24
 113:Dsp/ec11.c    **** 			{
 114:Dsp/ec11.c    **** 				k_data = S0;
 246              		.loc 1 114 0
 247 0088 234B     		ldr	r3, .L30
 248 008a 0022     		movs	r2, #0
 249 008c 1A70     		strb	r2, [r3]
 250 008e 33E0     		b	.L10
 251              	.L24:
 115:Dsp/ec11.c    **** 			}
 116:Dsp/ec11.c    **** 			else
 117:Dsp/ec11.c    **** 			{
 118:Dsp/ec11.c    **** 				k_data = S1;
 252              		.loc 1 118 0
 253 0090 214B     		ldr	r3, .L30
 254 0092 0122     		movs	r2, #1
 255 0094 1A70     		strb	r2, [r3]
 256 0096 2FE0     		b	.L10
 257              	.L17:
 119:Dsp/ec11.c    **** 			}
 120:Dsp/ec11.c    **** 			break;
 121:Dsp/ec11.c    **** 		case S4:
 122:Dsp/ec11.c    **** 			if (GPIOA->IDR & GPIO_PIN_8)
 258              		.loc 1 122 0
 259 0098 9023     		movs	r3, #144
 260 009a DB05     		lsls	r3, r3, #23
 261 009c 1B69     		ldr	r3, [r3, #16]
 262 009e DB05     		lsls	r3, r3, #23
 263 00a0 1AD4     		bmi	.L28
 123:Dsp/ec11.c    **** 			{
 124:Dsp/ec11.c    **** 				k_data = S3;
 125:Dsp/ec11.c    **** 			}
 126:Dsp/ec11.c    **** 			else
 127:Dsp/ec11.c    **** 			{
 128:Dsp/ec11.c    **** 				press = 0;
 264              		.loc 1 128 0
 265 00a2 0023     		movs	r3, #0
 266 00a4 1E4A     		ldr	r2, .L30+8
 267 00a6 1370     		strb	r3, [r2]
 129:Dsp/ec11.c    **** 				t = 0;
 268              		.loc 1 129 0
 269 00a8 1E4A     		ldr	r2, .L30+12
 270 00aa 1370     		strb	r3, [r2]
 130:Dsp/ec11.c    **** 				//t_pid = 0;
 131:Dsp/ec11.c    **** 				GPIOA->BRR = 1 << 11;
 271              		.loc 1 131 0
ARM GAS  /tmp/ccbKX7Q4.s 			page 8


 272 00ac 9023     		movs	r3, #144
 273 00ae DB05     		lsls	r3, r3, #23
 274 00b0 8022     		movs	r2, #128
 275 00b2 1201     		lsls	r2, r2, #4
 276 00b4 9A62     		str	r2, [r3, #40]
 132:Dsp/ec11.c    **** 				GPIOA->BSRR = 1 << 12;
 277              		.loc 1 132 0
 278 00b6 8022     		movs	r2, #128
 279 00b8 5201     		lsls	r2, r2, #5
 280 00ba 9A61     		str	r2, [r3, #24]
 133:Dsp/ec11.c    **** 
 134:Dsp/ec11.c    **** 				press_l++;
 281              		.loc 1 134 0
 282 00bc 1A4A     		ldr	r2, .L30+16
 283 00be 1378     		ldrb	r3, [r2]
 284 00c0 0133     		adds	r3, r3, #1
 285 00c2 DBB2     		uxtb	r3, r3
 286 00c4 1370     		strb	r3, [r2]
 135:Dsp/ec11.c    **** 				if (20 < press_l)
 287              		.loc 1 135 0
 288 00c6 142B     		cmp	r3, #20
 289 00c8 02D9     		bls	.L26
 136:Dsp/ec11.c    **** 				{
 137:Dsp/ec11.c    **** 					k_data = S5;
 290              		.loc 1 137 0
 291 00ca 134B     		ldr	r3, .L30
 292 00cc 0522     		movs	r2, #5
 293 00ce 1A70     		strb	r2, [r3]
 294              	.L26:
 138:Dsp/ec11.c    **** 				}
 139:Dsp/ec11.c    **** 
 140:Dsp/ec11.c    **** 				printf("S4\r\n");
 295              		.loc 1 140 0
 296 00d0 1648     		ldr	r0, .L30+20
 297 00d2 FFF7FEFF 		bl	puts
 298              	.LVL1:
 299 00d6 0FE0     		b	.L10
 300              	.L28:
 124:Dsp/ec11.c    **** 			}
 301              		.loc 1 124 0
 302 00d8 0F4B     		ldr	r3, .L30
 303 00da 0322     		movs	r2, #3
 304 00dc 1A70     		strb	r2, [r3]
 305 00de 0BE0     		b	.L10
 306              	.L18:
 141:Dsp/ec11.c    **** 			}
 142:Dsp/ec11.c    **** 			break;
 143:Dsp/ec11.c    **** 
 144:Dsp/ec11.c    **** 		case S5:
 145:Dsp/ec11.c    **** 			if (GPIOA->IDR & GPIO_PIN_8)
 307              		.loc 1 145 0
 308 00e0 9023     		movs	r3, #144
 309 00e2 DB05     		lsls	r3, r3, #23
 310 00e4 1B69     		ldr	r3, [r3, #16]
 311 00e6 DB05     		lsls	r3, r3, #23
 312 00e8 07D5     		bpl	.L29
 313              	.L11:
ARM GAS  /tmp/ccbKX7Q4.s 			page 9


 146:Dsp/ec11.c    **** 			{
 147:Dsp/ec11.c    **** 				k_data = S3;
 148:Dsp/ec11.c    **** 			}
 149:Dsp/ec11.c    **** 			else
 150:Dsp/ec11.c    **** 			{
 151:Dsp/ec11.c    **** 				press_l = 0;
 152:Dsp/ec11.c    **** 				flag_ec11 = 1;
 153:Dsp/ec11.c    **** 				printf("S5\r\n");
 154:Dsp/ec11.c    **** 				GPIOA->BRR = 1 << 12;
 155:Dsp/ec11.c    **** 			}
 156:Dsp/ec11.c    **** 		default:
 157:Dsp/ec11.c    **** 			k_data = S0;
 314              		.loc 1 157 0
 315 00ea 0023     		movs	r3, #0
 316 00ec 0A4A     		ldr	r2, .L30
 317 00ee 1370     		strb	r3, [r2]
 158:Dsp/ec11.c    **** 			press = 0;
 318              		.loc 1 158 0
 319 00f0 0B4A     		ldr	r2, .L30+8
 320 00f2 1370     		strb	r3, [r2]
 159:Dsp/ec11.c    **** 			press_l = 0;
 321              		.loc 1 159 0
 322 00f4 0C4A     		ldr	r2, .L30+16
 323 00f6 1370     		strb	r3, [r2]
 324              	.L10:
 160:Dsp/ec11.c    **** 			break;
 161:Dsp/ec11.c    **** 	}
 162:Dsp/ec11.c    **** }
 325              		.loc 1 162 0
 326              		@ sp needed
 327 00f8 10BD     		pop	{r4, pc}
 328              	.L29:
 151:Dsp/ec11.c    **** 				flag_ec11 = 1;
 329              		.loc 1 151 0
 330 00fa 0B4B     		ldr	r3, .L30+16
 331 00fc 0022     		movs	r2, #0
 332 00fe 1A70     		strb	r2, [r3]
 152:Dsp/ec11.c    **** 				printf("S5\r\n");
 333              		.loc 1 152 0
 334 0100 0B4B     		ldr	r3, .L30+24
 335 0102 0132     		adds	r2, r2, #1
 336 0104 1A70     		strb	r2, [r3]
 153:Dsp/ec11.c    **** 				GPIOA->BRR = 1 << 12;
 337              		.loc 1 153 0
 338 0106 0B48     		ldr	r0, .L30+28
 339 0108 FFF7FEFF 		bl	puts
 340              	.LVL2:
 154:Dsp/ec11.c    **** 			}
 341              		.loc 1 154 0
 342 010c 9023     		movs	r3, #144
 343 010e DB05     		lsls	r3, r3, #23
 344 0110 8022     		movs	r2, #128
 345 0112 5201     		lsls	r2, r2, #5
 346 0114 9A62     		str	r2, [r3, #40]
 347 0116 E8E7     		b	.L11
 348              	.L31:
 349              		.align	2
ARM GAS  /tmp/ccbKX7Q4.s 			page 10


 350              	.L30:
 351 0118 00000000 		.word	.LANCHOR1
 352 011c 00000000 		.word	.L13
 353 0120 00000000 		.word	.LANCHOR2
 354 0124 00000000 		.word	.LANCHOR0
 355 0128 00000000 		.word	.LANCHOR3
 356 012c 00000000 		.word	.LC8
 357 0130 00000000 		.word	flag_ec11
 358 0134 04000000 		.word	.LC11
 359              		.cfi_endproc
 360              	.LFE39:
 362              		.section	.bss.k_data.6959,"aw",%nobits
 363              		.set	.LANCHOR1,. + 0
 366              	k_data.6959:
 367 0000 00       		.space	1
 368              		.section	.bss.press.6960,"aw",%nobits
 369              		.set	.LANCHOR2,. + 0
 372              	press.6960:
 373 0000 00       		.space	1
 374              		.section	.bss.press_l.6961,"aw",%nobits
 375              		.set	.LANCHOR3,. + 0
 378              	press_l.6961:
 379 0000 00       		.space	1
 380              		.section	.data.t,"aw",%progbits
 381              		.set	.LANCHOR0,. + 0
 384              	t:
 385 0000 01       		.byte	1
 386              		.section	.rodata.key_scanning.str1.4,"aMS",%progbits,1
 387              		.align	2
 388              	.LC8:
 389 0000 53340D00 		.ascii	"S4\015\000"
 390              	.LC11:
 391 0004 53350D00 		.ascii	"S5\015\000"
 392              		.text
 393              	.Letext0:
 394              		.file 2 "/home/xiao/Tool/gcc-arm-none-eabi-7-2017-q4-major/arm-none-eabi/include/machine/_default_
 395              		.file 3 "/home/xiao/Tool/gcc-arm-none-eabi-7-2017-q4-major/arm-none-eabi/include/sys/_stdint.h"
 396              		.file 4 "Drivers/CMSIS/Device/ST/STM32F0xx/Include/system_stm32f0xx.h"
 397              		.file 5 "Drivers/CMSIS/Device/ST/STM32F0xx/Include/stm32f030x6.h"
 398              		.file 6 "/home/xiao/Tool/gcc-arm-none-eabi-7-2017-q4-major/arm-none-eabi/include/sys/lock.h"
 399              		.file 7 "/home/xiao/Tool/gcc-arm-none-eabi-7-2017-q4-major/arm-none-eabi/include/sys/_types.h"
 400              		.file 8 "/home/xiao/Tool/gcc-arm-none-eabi-7-2017-q4-major/lib/gcc/arm-none-eabi/7.2.1/include/std
 401              		.file 9 "/home/xiao/Tool/gcc-arm-none-eabi-7-2017-q4-major/arm-none-eabi/include/sys/reent.h"
 402              		.file 10 "<built-in>"
ARM GAS  /tmp/ccbKX7Q4.s 			page 11

