ARM GAS  /tmp/ccNq586E.s 			page 1


   1              		.cpu cortex-m0
   2              		.eabi_attribute 20, 1
   3              		.eabi_attribute 21, 1
   4              		.eabi_attribute 23, 3
   5              		.eabi_attribute 24, 1
   6              		.eabi_attribute 25, 1
   7              		.eabi_attribute 26, 1
   8              		.eabi_attribute 30, 1
   9              		.eabi_attribute 34, 0
  10              		.eabi_attribute 18, 4
  11              		.file	"gpio.c"
  12              		.text
  13              	.Ltext0:
  14              		.cfi_sections	.debug_frame
  15              		.section	.text.MX_GPIO_Init,"ax",%progbits
  16              		.align	1
  17              		.global	MX_GPIO_Init
  18              		.syntax unified
  19              		.code	16
  20              		.thumb_func
  21              		.fpu softvfp
  23              	MX_GPIO_Init:
  24              	.LFB37:
  25              		.file 1 "Src/gpio.c"
   1:Src/gpio.c    **** /**
   2:Src/gpio.c    ****   ******************************************************************************
   3:Src/gpio.c    ****   * File Name          : gpio.c
   4:Src/gpio.c    ****   * Description        : This file provides code for the configuration
   5:Src/gpio.c    ****   *                      of all used GPIO pins.
   6:Src/gpio.c    ****   ******************************************************************************
   7:Src/gpio.c    ****   ** This notice applies to any and all portions of this file
   8:Src/gpio.c    ****   * that are not between comment pairs USER CODE BEGIN and
   9:Src/gpio.c    ****   * USER CODE END. Other portions of this file, whether 
  10:Src/gpio.c    ****   * inserted by the user or by software development tools
  11:Src/gpio.c    ****   * are owned by their respective copyright owners.
  12:Src/gpio.c    ****   *
  13:Src/gpio.c    ****   * COPYRIGHT(c) 2018 STMicroelectronics
  14:Src/gpio.c    ****   *
  15:Src/gpio.c    ****   * Redistribution and use in source and binary forms, with or without modification,
  16:Src/gpio.c    ****   * are permitted provided that the following conditions are met:
  17:Src/gpio.c    ****   *   1. Redistributions of source code must retain the above copyright notice,
  18:Src/gpio.c    ****   *      this list of conditions and the following disclaimer.
  19:Src/gpio.c    ****   *   2. Redistributions in binary form must reproduce the above copyright notice,
  20:Src/gpio.c    ****   *      this list of conditions and the following disclaimer in the documentation
  21:Src/gpio.c    ****   *      and/or other materials provided with the distribution.
  22:Src/gpio.c    ****   *   3. Neither the name of STMicroelectronics nor the names of its contributors
  23:Src/gpio.c    ****   *      may be used to endorse or promote products derived from this software
  24:Src/gpio.c    ****   *      without specific prior written permission.
  25:Src/gpio.c    ****   *
  26:Src/gpio.c    ****   * THIS SOFTWARE IS PROVIDED BY THE COPYRIGHT HOLDERS AND CONTRIBUTORS "AS IS"
  27:Src/gpio.c    ****   * AND ANY EXPRESS OR IMPLIED WARRANTIES, INCLUDING, BUT NOT LIMITED TO, THE
  28:Src/gpio.c    ****   * IMPLIED WARRANTIES OF MERCHANTABILITY AND FITNESS FOR A PARTICULAR PURPOSE ARE
  29:Src/gpio.c    ****   * DISCLAIMED. IN NO EVENT SHALL THE COPYRIGHT HOLDER OR CONTRIBUTORS BE LIABLE
  30:Src/gpio.c    ****   * FOR ANY DIRECT, INDIRECT, INCIDENTAL, SPECIAL, EXEMPLARY, OR CONSEQUENTIAL
  31:Src/gpio.c    ****   * DAMAGES (INCLUDING, BUT NOT LIMITED TO, PROCUREMENT OF SUBSTITUTE GOODS OR
  32:Src/gpio.c    ****   * SERVICES; LOSS OF USE, DATA, OR PROFITS; OR BUSINESS INTERRUPTION) HOWEVER
  33:Src/gpio.c    ****   * CAUSED AND ON ANY THEORY OF LIABILITY, WHETHER IN CONTRACT, STRICT LIABILITY,
ARM GAS  /tmp/ccNq586E.s 			page 2


  34:Src/gpio.c    ****   * OR TORT (INCLUDING NEGLIGENCE OR OTHERWISE) ARISING IN ANY WAY OUT OF THE USE
  35:Src/gpio.c    ****   * OF THIS SOFTWARE, EVEN IF ADVISED OF THE POSSIBILITY OF SUCH DAMAGE.
  36:Src/gpio.c    ****   *
  37:Src/gpio.c    ****   ******************************************************************************
  38:Src/gpio.c    ****   */
  39:Src/gpio.c    **** 
  40:Src/gpio.c    **** /* Includes ------------------------------------------------------------------*/
  41:Src/gpio.c    **** #include "gpio.h"
  42:Src/gpio.c    **** /* USER CODE BEGIN 0 */
  43:Src/gpio.c    **** 
  44:Src/gpio.c    **** /* USER CODE END 0 */
  45:Src/gpio.c    **** 
  46:Src/gpio.c    **** /*----------------------------------------------------------------------------*/
  47:Src/gpio.c    **** /* Configure GPIO                                                             */
  48:Src/gpio.c    **** /*----------------------------------------------------------------------------*/
  49:Src/gpio.c    **** /* USER CODE BEGIN 1 */
  50:Src/gpio.c    **** 
  51:Src/gpio.c    **** /* USER CODE END 1 */
  52:Src/gpio.c    **** 
  53:Src/gpio.c    **** /** Configure pins as 
  54:Src/gpio.c    ****         * Analog 
  55:Src/gpio.c    ****         * Input 
  56:Src/gpio.c    ****         * Output
  57:Src/gpio.c    ****         * EVENT_OUT
  58:Src/gpio.c    ****         * EXTI
  59:Src/gpio.c    **** */
  60:Src/gpio.c    **** void MX_GPIO_Init(void)
  61:Src/gpio.c    **** {
  26              		.loc 1 61 0
  27              		.cfi_startproc
  28              		@ args = 0, pretend = 0, frame = 32
  29              		@ frame_needed = 0, uses_anonymous_args = 0
  30 0000 F0B5     		push	{r4, r5, r6, r7, lr}
  31              	.LCFI0:
  32              		.cfi_def_cfa_offset 20
  33              		.cfi_offset 4, -20
  34              		.cfi_offset 5, -16
  35              		.cfi_offset 6, -12
  36              		.cfi_offset 7, -8
  37              		.cfi_offset 14, -4
  38 0002 89B0     		sub	sp, sp, #36
  39              	.LCFI1:
  40              		.cfi_def_cfa_offset 56
  41              	.LBB2:
  62:Src/gpio.c    **** 
  63:Src/gpio.c    ****   GPIO_InitTypeDef GPIO_InitStruct;
  64:Src/gpio.c    **** 
  65:Src/gpio.c    ****   /* GPIO Ports Clock Enable */
  66:Src/gpio.c    ****   __HAL_RCC_GPIOF_CLK_ENABLE();
  42              		.loc 1 66 0
  43 0004 394B     		ldr	r3, .L2
  44 0006 5969     		ldr	r1, [r3, #20]
  45 0008 8020     		movs	r0, #128
  46 000a C003     		lsls	r0, r0, #15
  47 000c 0143     		orrs	r1, r0
  48 000e 5961     		str	r1, [r3, #20]
  49 0010 5A69     		ldr	r2, [r3, #20]
ARM GAS  /tmp/ccNq586E.s 			page 3


  50 0012 0240     		ands	r2, r0
  51 0014 0092     		str	r2, [sp]
  52 0016 009A     		ldr	r2, [sp]
  53              	.LBE2:
  54              	.LBB3:
  67:Src/gpio.c    ****   __HAL_RCC_GPIOA_CLK_ENABLE();
  55              		.loc 1 67 0
  56 0018 5969     		ldr	r1, [r3, #20]
  57 001a 8020     		movs	r0, #128
  58 001c 8002     		lsls	r0, r0, #10
  59 001e 0143     		orrs	r1, r0
  60 0020 5961     		str	r1, [r3, #20]
  61 0022 5A69     		ldr	r2, [r3, #20]
  62 0024 0240     		ands	r2, r0
  63 0026 0192     		str	r2, [sp, #4]
  64 0028 019A     		ldr	r2, [sp, #4]
  65              	.LBE3:
  66              	.LBB4:
  68:Src/gpio.c    ****   __HAL_RCC_GPIOB_CLK_ENABLE();
  67              		.loc 1 68 0
  68 002a 5A69     		ldr	r2, [r3, #20]
  69 002c 8021     		movs	r1, #128
  70 002e C902     		lsls	r1, r1, #11
  71 0030 0A43     		orrs	r2, r1
  72 0032 5A61     		str	r2, [r3, #20]
  73 0034 5B69     		ldr	r3, [r3, #20]
  74 0036 0B40     		ands	r3, r1
  75 0038 0293     		str	r3, [sp, #8]
  76 003a 029B     		ldr	r3, [sp, #8]
  77              	.LBE4:
  69:Src/gpio.c    **** 
  70:Src/gpio.c    ****   /*Configure GPIO pin Output Level */
  71:Src/gpio.c    ****   HAL_GPIO_WritePin(GPIOA, GPIO_PIN_0, GPIO_PIN_RESET);
  78              		.loc 1 71 0
  79 003c 9024     		movs	r4, #144
  80 003e E405     		lsls	r4, r4, #23
  81 0040 0022     		movs	r2, #0
  82 0042 0121     		movs	r1, #1
  83 0044 2000     		movs	r0, r4
  84 0046 FFF7FEFF 		bl	HAL_GPIO_WritePin
  85              	.LVL0:
  72:Src/gpio.c    **** 
  73:Src/gpio.c    ****   /*Configure GPIO pin Output Level */
  74:Src/gpio.c    ****   HAL_GPIO_WritePin(GPIOA, GPIO_PIN_11|GPIO_PIN_12, GPIO_PIN_SET);
  86              		.loc 1 74 0
  87 004a C021     		movs	r1, #192
  88 004c 0122     		movs	r2, #1
  89 004e 4901     		lsls	r1, r1, #5
  90 0050 2000     		movs	r0, r4
  91 0052 FFF7FEFF 		bl	HAL_GPIO_WritePin
  92              	.LVL1:
  75:Src/gpio.c    **** 
  76:Src/gpio.c    ****   /*Configure GPIO pin Output Level */
  77:Src/gpio.c    ****   HAL_GPIO_WritePin(GPIOA, GPIO_PIN_15, GPIO_PIN_RESET);
  93              		.loc 1 77 0
  94 0056 8021     		movs	r1, #128
  95 0058 0022     		movs	r2, #0
ARM GAS  /tmp/ccNq586E.s 			page 4


  96 005a 0902     		lsls	r1, r1, #8
  97 005c 2000     		movs	r0, r4
  98 005e FFF7FEFF 		bl	HAL_GPIO_WritePin
  99              	.LVL2:
  78:Src/gpio.c    **** 
  79:Src/gpio.c    ****   /*Configure GPIO pin Output Level */
  80:Src/gpio.c    ****   HAL_GPIO_WritePin(GPIOB, GPIO_PIN_3, GPIO_PIN_RESET); 
 100              		.loc 1 80 0
 101 0062 0022     		movs	r2, #0
 102 0064 0821     		movs	r1, #8
 103 0066 2248     		ldr	r0, .L2+4
 104 0068 FFF7FEFF 		bl	HAL_GPIO_WritePin
 105              	.LVL3:
  81:Src/gpio.c    ****   /*Configure GPIO pin Output Level */
  82:Src/gpio.c    ****   HAL_GPIO_WritePin(GPIOB, GPIO_PIN_5|GPIO_PIN_6|GPIO_PIN_7, GPIO_PIN_SET);
 106              		.loc 1 82 0
 107 006c 0122     		movs	r2, #1
 108 006e E021     		movs	r1, #224
 109 0070 1F48     		ldr	r0, .L2+4
 110 0072 FFF7FEFF 		bl	HAL_GPIO_WritePin
 111              	.LVL4:
  83:Src/gpio.c    **** 
  84:Src/gpio.c    ****   /*Configure GPIO pin : PA8 */
  85:Src/gpio.c    ****   GPIO_InitStruct.Pin = GPIO_PIN_8;
 112              		.loc 1 85 0
 113 0076 8023     		movs	r3, #128
 114 0078 5B00     		lsls	r3, r3, #1
 115 007a 0393     		str	r3, [sp, #12]
  86:Src/gpio.c    ****   GPIO_InitStruct.Mode = GPIO_MODE_INPUT;
 116              		.loc 1 86 0
 117 007c 0025     		movs	r5, #0
 118 007e 0495     		str	r5, [sp, #16]
  87:Src/gpio.c    ****   GPIO_InitStruct.Pull = GPIO_PULLUP;
 119              		.loc 1 87 0
 120 0080 0127     		movs	r7, #1
 121 0082 0597     		str	r7, [sp, #20]
  88:Src/gpio.c    ****   HAL_GPIO_Init(GPIOA, &GPIO_InitStruct);
 122              		.loc 1 88 0
 123 0084 03A9     		add	r1, sp, #12
 124 0086 2000     		movs	r0, r4
 125 0088 FFF7FEFF 		bl	HAL_GPIO_Init
 126              	.LVL5:
  89:Src/gpio.c    **** 
  90:Src/gpio.c    ****   /*Configure GPIO pin : PA9 */
  91:Src/gpio.c    ****   GPIO_InitStruct.Pin = GPIO_PIN_9;
 127              		.loc 1 91 0
 128 008c 8023     		movs	r3, #128
 129 008e 9B00     		lsls	r3, r3, #2
 130 0090 0393     		str	r3, [sp, #12]
  92:Src/gpio.c    ****   GPIO_InitStruct.Mode = GPIO_MODE_IT_FALLING;
 131              		.loc 1 92 0
 132 0092 184B     		ldr	r3, .L2+8
 133 0094 0493     		str	r3, [sp, #16]
  93:Src/gpio.c    ****   GPIO_InitStruct.Pull = GPIO_NOPULL;
 134              		.loc 1 93 0
 135 0096 0595     		str	r5, [sp, #20]
  94:Src/gpio.c    ****   HAL_GPIO_Init(GPIOA, &GPIO_InitStruct);
ARM GAS  /tmp/ccNq586E.s 			page 5


 136              		.loc 1 94 0
 137 0098 03A9     		add	r1, sp, #12
 138 009a 2000     		movs	r0, r4
 139 009c FFF7FEFF 		bl	HAL_GPIO_Init
 140              	.LVL6:
  95:Src/gpio.c    **** 
  96:Src/gpio.c    ****   /*Configure GPIO pin : PA10 */
  97:Src/gpio.c    ****   GPIO_InitStruct.Pin = GPIO_PIN_10;
 141              		.loc 1 97 0
 142 00a0 8023     		movs	r3, #128
 143 00a2 DB00     		lsls	r3, r3, #3
 144 00a4 0393     		str	r3, [sp, #12]
  98:Src/gpio.c    ****   GPIO_InitStruct.Mode = GPIO_MODE_INPUT;
 145              		.loc 1 98 0
 146 00a6 0495     		str	r5, [sp, #16]
  99:Src/gpio.c    ****   GPIO_InitStruct.Pull = GPIO_NOPULL;
 147              		.loc 1 99 0
 148 00a8 0595     		str	r5, [sp, #20]
 100:Src/gpio.c    ****   HAL_GPIO_Init(GPIOA, &GPIO_InitStruct);
 149              		.loc 1 100 0
 150 00aa 03A9     		add	r1, sp, #12
 151 00ac 2000     		movs	r0, r4
 152 00ae FFF7FEFF 		bl	HAL_GPIO_Init
 153              	.LVL7:
 101:Src/gpio.c    **** 
 102:Src/gpio.c    ****   /*Configure GPIO pins : PA0 PA11 PA12 PA15 */
 103:Src/gpio.c    ****   GPIO_InitStruct.Pin = GPIO_PIN_0|GPIO_PIN_11|GPIO_PIN_12|GPIO_PIN_15;
 154              		.loc 1 103 0
 155 00b2 114B     		ldr	r3, .L2+12
 156 00b4 0393     		str	r3, [sp, #12]
 104:Src/gpio.c    ****   GPIO_InitStruct.Mode = GPIO_MODE_OUTPUT_PP;
 157              		.loc 1 104 0
 158 00b6 0497     		str	r7, [sp, #16]
 105:Src/gpio.c    ****   GPIO_InitStruct.Pull = GPIO_NOPULL;
 159              		.loc 1 105 0
 160 00b8 0595     		str	r5, [sp, #20]
 106:Src/gpio.c    ****   GPIO_InitStruct.Speed = GPIO_SPEED_FREQ_HIGH;
 161              		.loc 1 106 0
 162 00ba 0326     		movs	r6, #3
 163 00bc 0696     		str	r6, [sp, #24]
 107:Src/gpio.c    ****   HAL_GPIO_Init(GPIOA, &GPIO_InitStruct);
 164              		.loc 1 107 0
 165 00be 03A9     		add	r1, sp, #12
 166 00c0 2000     		movs	r0, r4
 167 00c2 FFF7FEFF 		bl	HAL_GPIO_Init
 168              	.LVL8:
 108:Src/gpio.c    **** 
 109:Src/gpio.c    ****   /*Configure GPIO pins : PB3 PB5 */
 110:Src/gpio.c    ****   GPIO_InitStruct.Pin = GPIO_PIN_3|GPIO_PIN_5;
 169              		.loc 1 110 0
 170 00c6 2823     		movs	r3, #40
 171 00c8 0393     		str	r3, [sp, #12]
 111:Src/gpio.c    ****   GPIO_InitStruct.Mode = GPIO_MODE_OUTPUT_PP;
 172              		.loc 1 111 0
 173 00ca 0497     		str	r7, [sp, #16]
 112:Src/gpio.c    ****   GPIO_InitStruct.Pull = GPIO_NOPULL;
 174              		.loc 1 112 0
ARM GAS  /tmp/ccNq586E.s 			page 6


 175 00cc 0595     		str	r5, [sp, #20]
 113:Src/gpio.c    ****   GPIO_InitStruct.Speed = GPIO_SPEED_FREQ_HIGH;
 176              		.loc 1 113 0
 177 00ce 0696     		str	r6, [sp, #24]
 114:Src/gpio.c    ****   HAL_GPIO_Init(GPIOB, &GPIO_InitStruct);
 178              		.loc 1 114 0
 179 00d0 03A9     		add	r1, sp, #12
 180 00d2 0748     		ldr	r0, .L2+4
 181 00d4 FFF7FEFF 		bl	HAL_GPIO_Init
 182              	.LVL9:
 115:Src/gpio.c    **** 
 116:Src/gpio.c    ****   /* EXTI interrupt init*/
 117:Src/gpio.c    ****   HAL_NVIC_SetPriority(EXTI4_15_IRQn, 2, 0);
 183              		.loc 1 117 0
 184 00d8 0022     		movs	r2, #0
 185 00da 0221     		movs	r1, #2
 186 00dc 0720     		movs	r0, #7
 187 00de FFF7FEFF 		bl	HAL_NVIC_SetPriority
 188              	.LVL10:
 118:Src/gpio.c    ****   HAL_NVIC_EnableIRQ(EXTI4_15_IRQn);
 189              		.loc 1 118 0
 190 00e2 0720     		movs	r0, #7
 191 00e4 FFF7FEFF 		bl	HAL_NVIC_EnableIRQ
 192              	.LVL11:
 119:Src/gpio.c    **** 
 120:Src/gpio.c    **** }
 193              		.loc 1 120 0
 194 00e8 09B0     		add	sp, sp, #36
 195              		@ sp needed
 196 00ea F0BD     		pop	{r4, r5, r6, r7, pc}
 197              	.L3:
 198              		.align	2
 199              	.L2:
 200 00ec 00100240 		.word	1073876992
 201 00f0 00040048 		.word	1207960576
 202 00f4 00002110 		.word	270598144
 203 00f8 01980000 		.word	38913
 204              		.cfi_endproc
 205              	.LFE37:
 207              		.text
 208              	.Letext0:
 209              		.file 2 "/home/xiao/Tool/gcc-arm-none-eabi-7-2017-q4-major/arm-none-eabi/include/machine/_default_
 210              		.file 3 "/home/xiao/Tool/gcc-arm-none-eabi-7-2017-q4-major/arm-none-eabi/include/sys/_stdint.h"
 211              		.file 4 "Drivers/CMSIS/Device/ST/STM32F0xx/Include/system_stm32f0xx.h"
 212              		.file 5 "Drivers/CMSIS/Device/ST/STM32F0xx/Include/stm32f030x6.h"
 213              		.file 6 "/home/xiao/Tool/gcc-arm-none-eabi-7-2017-q4-major/arm-none-eabi/include/sys/lock.h"
 214              		.file 7 "/home/xiao/Tool/gcc-arm-none-eabi-7-2017-q4-major/arm-none-eabi/include/sys/_types.h"
 215              		.file 8 "/home/xiao/Tool/gcc-arm-none-eabi-7-2017-q4-major/lib/gcc/arm-none-eabi/7.2.1/include/std
 216              		.file 9 "/home/xiao/Tool/gcc-arm-none-eabi-7-2017-q4-major/arm-none-eabi/include/sys/reent.h"
 217              		.file 10 "Drivers/STM32F0xx_HAL_Driver/Inc/stm32f0xx_hal_gpio.h"
 218              		.file 11 "Drivers/STM32F0xx_HAL_Driver/Inc/stm32f0xx_hal_cortex.h"
ARM GAS  /tmp/ccNq586E.s 			page 7

